target datalayout = "e-m:e-p270:32:32-p271:32:32-p272:64:64-i64:64-i128:128-f80:128-n8:16:32:64-S128"
target triple = "x86_64-pc-linux-gnu"

%struct.H5E_stack_t = type { i64, [32 x %struct.H5E_entry_t], %struct.H5E_auto_op_t, ptr, i32 }
%struct.H5E_entry_t = type { i8, %struct.H5E_error2_t }
%struct.H5E_error2_t = type { i64, i64, i64, i32, ptr, ptr, ptr }
%struct.H5E_auto_op_t = type { i32, i8, ptr, ptr, ptr, ptr }
%struct.H5E_user_cb_state_t = type { i32, %union.anon, ptr }
%union.anon = type { ptr }
%struct.H5_user_cb_state_t = type { %struct.H5E_user_cb_state_t }

@H5E_FUNC_g = global i64 -1, align 8
@H5E_CANTINIT_g = global i64 -1, align 8
@H5E_init_g = external global i8, align 1
@H5_libterm_g = external global i8, align 1
@.str.1 = private unnamed_addr constant [100 x i8] c"generated/home/dtcxzyw/WorkSpace/Projects/compilers/llvm-opt-benchmark/bench/hdf5/hdf5/src/H5Eint.c\00", align 1
@.str.2 = private unnamed_addr constant [32 x i8] c"interface initialization failed\00", align 1
@H5E_stack_g = global [1 x %struct.H5E_stack_t] zeroinitializer, align 16
@__func__.H5E_dump_api_stack = private unnamed_addr constant [19 x i8] c"H5E_dump_api_stack\00", align 1

; Function Attrs: nounwind uwtable
define i32 @H5E_dump_api_stack() #0 {
  %1 = alloca ptr, align 8
  %2 = alloca i32, align 4
  %3 = alloca i8, align 1
  %4 = alloca %struct.H5_user_cb_state_t, align 8
  %5 = alloca %struct.H5_user_cb_state_t, align 8
  call void @llvm.lifetime.start.p0(i64 8, ptr %1) #9
  store ptr @H5E_stack_g, ptr %1, align 8, !tbaa !16
  call void @llvm.lifetime.start.p0(i64 4, ptr %2) #9
  store i32 0, ptr %2, align 4, !tbaa !3
  call void @llvm.lifetime.start.p0(i64 1, ptr %3) #9
  store i8 0, ptr %3, align 1, !tbaa !7
  %6 = load i8, ptr @H5E_init_g, align 1, !tbaa !7, !range !9, !noundef !10
  %7 = trunc i8 %6 to i1
  br i1 %7, label %12, label %8

8:                                                ; preds = %0
  %9 = load i8, ptr @H5_libterm_g, align 1, !tbaa !7, !range !9, !noundef !10
  %10 = trunc i8 %9 to i1
  %11 = xor i1 %10, true
  br label %12

12:                                               ; preds = %8, %0
  %13 = phi i1 [ false, %0 ], [ %11, %8 ]
  %14 = xor i1 %13, true
  %15 = xor i1 %14, true
  %16 = zext i1 %15 to i32
  %17 = sext i32 %16 to i64
  %18 = call i64 @llvm.expect.i64(i64 %17, i64 0)
  %19 = icmp ne i64 %18, 0
  br i1 %19, label %20, label %43

20:                                               ; preds = %12
  store i8 1, ptr @H5E_init_g, align 1, !tbaa !7
  %21 = call i32 @H5E__init_package()
  %22 = icmp slt i32 %21, 0
  br i1 %22, label %23, label %42

23:                                               ; preds = %20
  store i8 0, ptr @H5E_init_g, align 1, !tbaa !7
  br label %24

24:                                               ; preds = %23
  br label %25

25:                                               ; preds = %24
  br label %26

26:                                               ; preds = %25
  %27 = load i64, ptr @H5E_FUNC_g, align 8, !tbaa !11
  %28 = load i64, ptr @H5E_CANTINIT_g, align 8, !tbaa !11
  %29 = call i32 (ptr, ptr, i32, i64, i64, ptr, ...) @H5E_printf_stack(ptr noundef @.str.1, ptr noundef @__func__.H5E_dump_api_stack, i32 noundef 1944, i64 noundef %27, i64 noundef %28, ptr noundef @.str.2)
  br label %30

30:                                               ; preds = %26
  br label %31

31:                                               ; preds = %30
  store i8 1, ptr %3, align 1, !tbaa !7
  %32 = load i8, ptr %3, align 1, !tbaa !7, !range !9, !noundef !10
  %33 = trunc i8 %32 to i1
  %34 = zext i1 %33 to i8
  store i8 %34, ptr %3, align 1, !tbaa !7
  br label %35

35:                                               ; preds = %31
  br label %36

36:                                               ; preds = %35
  br label %37

37:                                               ; preds = %36
  store i32 -1, ptr %2, align 4, !tbaa !3
  br label %115

38:                                               ; No predecessors!
  br label %39

39:                                               ; preds = %38
  br label %40

40:                                               ; preds = %39
  br label %41

41:                                               ; preds = %40
  br label %42

42:                                               ; preds = %41, %20
  br label %43

43:                                               ; preds = %42, %12
  %44 = load i8, ptr @H5E_init_g, align 1, !tbaa !7, !range !9, !noundef !10
  %45 = trunc i8 %44 to i1
  br i1 %45, label %50, label %46

46:                                               ; preds = %43
  %47 = load i8, ptr @H5_libterm_g, align 1, !tbaa !7, !range !9, !noundef !10
  %48 = trunc i8 %47 to i1
  %49 = xor i1 %48, true
  br label %50

50:                                               ; preds = %46, %43
  %51 = phi i1 [ true, %43 ], [ %49, %46 ]
  %52 = xor i1 %51, true
  %53 = xor i1 %52, true
  %54 = zext i1 %53 to i32
  %55 = sext i32 %54 to i64
  %56 = call i64 @llvm.expect.i64(i64 %55, i64 1)
  %57 = icmp ne i64 %56, 0
  br i1 %57, label %58, label %116

58:                                               ; preds = %50
  %59 = load ptr, ptr %1, align 8, !tbaa !16
  %60 = getelementptr inbounds nuw %struct.H5E_stack_t, ptr %59, i32 0, i32 2
  %61 = getelementptr inbounds nuw %struct.H5E_auto_op_t, ptr %60, i32 0, i32 0
  %62 = load i32, ptr %61, align 8, !tbaa !24
  %63 = icmp eq i32 %62, 1
  br i1 %63, label %64, label %89

64:                                               ; preds = %58
  %65 = load ptr, ptr %1, align 8, !tbaa !16
  %66 = getelementptr inbounds nuw %struct.H5E_stack_t, ptr %65, i32 0, i32 2
  %67 = getelementptr inbounds nuw %struct.H5E_auto_op_t, ptr %66, i32 0, i32 2
  %68 = load ptr, ptr %67, align 8, !tbaa !27
  %69 = icmp ne ptr %68, null
  br i1 %69, label %70, label %88

70:                                               ; preds = %64
  call void @llvm.lifetime.start.p0(i64 24, ptr %4) #9
  %71 = call i32 @H5_user_cb_prepare(ptr noundef %4)
  %72 = icmp slt i32 %71, 0
  br i1 %72, label %73, label %74

73:                                               ; preds = %70
  store i32 -1, ptr %2, align 4, !tbaa !3
  br label %87

74:                                               ; preds = %70
  %75 = load ptr, ptr %1, align 8, !tbaa !16
  %76 = getelementptr inbounds nuw %struct.H5E_stack_t, ptr %75, i32 0, i32 2
  %77 = getelementptr inbounds nuw %struct.H5E_auto_op_t, ptr %76, i32 0, i32 2
  %78 = load ptr, ptr %77, align 8, !tbaa !27
  %79 = load ptr, ptr %1, align 8, !tbaa !16
  %80 = getelementptr inbounds nuw %struct.H5E_stack_t, ptr %79, i32 0, i32 3
  %81 = load ptr, ptr %80, align 8, !tbaa !30
  %82 = call i32 %78(ptr noundef %81)
  %83 = call i32 @H5_user_cb_restore(ptr noundef %4)
  %84 = icmp slt i32 %83, 0
  br i1 %84, label %85, label %86

85:                                               ; preds = %74
  store i32 -1, ptr %2, align 4, !tbaa !3
  br label %86

86:                                               ; preds = %85, %74
  br label %87

87:                                               ; preds = %86, %73
  call void @llvm.lifetime.end.p0(i64 24, ptr %4) #9
  br label %88

88:                                               ; preds = %87, %64
  br label %114

89:                                               ; preds = %58
  %90 = load ptr, ptr %1, align 8, !tbaa !16
  %91 = getelementptr inbounds nuw %struct.H5E_stack_t, ptr %90, i32 0, i32 2
  %92 = getelementptr inbounds nuw %struct.H5E_auto_op_t, ptr %91, i32 0, i32 3
  %93 = load ptr, ptr %92, align 8, !tbaa !29
  %94 = icmp ne ptr %93, null
  br i1 %94, label %95, label %113

95:                                               ; preds = %89
  call void @llvm.lifetime.start.p0(i64 24, ptr %5) #9
  %96 = call i32 @H5_user_cb_prepare(ptr noundef %5)
  %97 = icmp slt i32 %96, 0
  br i1 %97, label %98, label %99

98:                                               ; preds = %95
  store i32 -1, ptr %2, align 4, !tbaa !3
  br label %112

99:                                               ; preds = %95
  %100 = load ptr, ptr %1, align 8, !tbaa !16
  %101 = getelementptr inbounds nuw %struct.H5E_stack_t, ptr %100, i32 0, i32 2
  %102 = getelementptr inbounds nuw %struct.H5E_auto_op_t, ptr %101, i32 0, i32 3
  %103 = load ptr, ptr %102, align 8, !tbaa !29
  %104 = load ptr, ptr %1, align 8, !tbaa !16
  %105 = getelementptr inbounds nuw %struct.H5E_stack_t, ptr %104, i32 0, i32 3
  %106 = load ptr, ptr %105, align 8, !tbaa !30
  %107 = call i32 %103(i64 noundef 0, ptr noundef %106)
  %108 = call i32 @H5_user_cb_restore(ptr noundef %5)
  %109 = icmp slt i32 %108, 0
  br i1 %109, label %110, label %111

110:                                              ; preds = %99
  store i32 -1, ptr %2, align 4, !tbaa !3
  br label %111

111:                                              ; preds = %110, %99
  br label %112

112:                                              ; preds = %111, %98
  call void @llvm.lifetime.end.p0(i64 24, ptr %5) #9
  br label %113

113:                                              ; preds = %112, %89
  br label %114

114:                                              ; preds = %113, %88
  br label %115

115:                                              ; preds = %114, %37
  br label %116

116:                                              ; preds = %115, %50
  %117 = load i32, ptr %2, align 4, !tbaa !3
  call void @llvm.lifetime.end.p0(i64 1, ptr %3) #9
  call void @llvm.lifetime.end.p0(i64 4, ptr %2) #9
  call void @llvm.lifetime.end.p0(i64 8, ptr %1) #9
  ret i32 %117
}