; Function Attrs: nounwind uwtable
define range(i32 -1, 1) i32 @H5E_dump_api_stack() local_unnamed_addr #0 {
  %1 = alloca %struct.H5_user_cb_state_t, align 8
  %2 = alloca %struct.H5_user_cb_state_t, align 8
  %3 = load i8, ptr @H5E_init_g, align 1, !tbaa !3, !range !7, !noundef !8
  %4 = trunc nuw i8 %3 to i1
  %5 = load i8, ptr @H5_libterm_g, align 1, !range !7
  %6 = trunc nuw i8 %5 to i1
  %7 = select i1 %4, i1 true, i1 %6
  br i1 %7, label %15, label %8, !prof !9

8:                                                ; preds = %0
  store i8 1, ptr @H5E_init_g, align 1, !tbaa !3
  %9 = tail call i32 @H5E__init_package()
  %10 = icmp slt i32 %9, 0
  br i1 %10, label %11, label %._crit_edge

._crit_edge:                                      ; preds = %8
  %.pre = load i8, ptr @H5E_init_g, align 1, !tbaa !3, !range !7
  %.pre11 = load i8, ptr @H5_libterm_g, align 1, !range !7
  %.pre12 = trunc nuw i8 %.pre to i1
  %.pre13 = trunc nuw i8 %.pre11 to i1
  br label %15

11:                                               ; preds = %8
  store i8 0, ptr @H5E_init_g, align 1, !tbaa !3
  %12 = load i64, ptr @H5E_FUNC_g, align 8, !tbaa !10
  %13 = load i64, ptr @H5E_CANTINIT_g, align 8, !tbaa !10
  %14 = tail call i32 (ptr, ptr, i32, i64, i64, ptr, ...) @H5E_printf_stack(ptr noundef nonnull @.str.1, ptr noundef nonnull @__func__.H5E_dump_api_stack, i32 noundef 1944, i64 noundef %12, i64 noundef %13, ptr noundef nonnull @.str.2)
  br label %43

15:                                               ; preds = %._crit_edge, %0
  %.pre-phi14 = phi i1 [ %.pre13, %._crit_edge ], [ %6, %0 ]
  %.pre-phi = phi i1 [ %.pre12, %._crit_edge ], [ %4, %0 ]
  %16 = xor i1 %.pre-phi14, true
  %17 = select i1 %.pre-phi, i1 true, i1 %16
  br i1 %17, label %18, label %43, !prof !9

18:                                               ; preds = %15
  %19 = load i32, ptr getelementptr inbounds nuw (i8, ptr @H5E_stack_g, i64 2056), align 8, !tbaa !30
  %20 = icmp eq i32 %19, 1
  br i1 %20, label %21, label %32

21:                                               ; preds = %18
  %22 = load ptr, ptr getelementptr inbounds nuw (i8, ptr @H5E_stack_g, i64 2064), align 16, !tbaa !36
  %.not8 = icmp eq ptr %22, null
  br i1 %.not8, label %43, label %23

23:                                               ; preds = %21
  call void @llvm.lifetime.start.p0(i64 24, ptr nonnull %1) #16
  %24 = call i32 @H5_user_cb_prepare(ptr noundef nonnull %1) #16
  %25 = icmp slt i32 %24, 0
  br i1 %25, label %31, label %26

26:                                               ; preds = %23
  %27 = load ptr, ptr getelementptr inbounds nuw (i8, ptr @H5E_stack_g, i64 2064), align 16, !tbaa !36
  %28 = load ptr, ptr getelementptr inbounds nuw (i8, ptr @H5E_stack_g, i64 2096), align 16, !tbaa !34
  %29 = call i32 %27(ptr noundef %28) #16
  %30 = call i32 @H5_user_cb_restore(ptr noundef nonnull %1) #16
  %.lobit10 = ashr i32 %30, 31
  br label %31

31:                                               ; preds = %26, %23
  %.1 = phi i32 [ -1, %23 ], [ %.lobit10, %26 ]
  call void @llvm.lifetime.end.p0(i64 24, ptr nonnull %1) #16
  br label %43

32:                                               ; preds = %18
  %33 = load ptr, ptr getelementptr inbounds nuw (i8, ptr @H5E_stack_g, i64 2072), align 8, !tbaa !37
  %.not = icmp eq ptr %33, null
  br i1 %.not, label %43, label %34

34:                                               ; preds = %32
  call void @llvm.lifetime.start.p0(i64 24, ptr nonnull %2) #16
  %35 = call i32 @H5_user_cb_prepare(ptr noundef nonnull %2) #16
  %36 = icmp slt i32 %35, 0
  br i1 %36, label %42, label %37

37:                                               ; preds = %34
  %38 = load ptr, ptr getelementptr inbounds nuw (i8, ptr @H5E_stack_g, i64 2072), align 8, !tbaa !37
  %39 = load ptr, ptr getelementptr inbounds nuw (i8, ptr @H5E_stack_g, i64 2096), align 16, !tbaa !34
  %40 = call i32 %38(i64 noundef 0, ptr noundef %39) #16
  %41 = call i32 @H5_user_cb_restore(ptr noundef nonnull %2) #16
  %.lobit = ashr i32 %41, 31
  br label %42

42:                                               ; preds = %37, %34
  %.2 = phi i32 [ -1, %34 ], [ %.lobit, %37 ]
  call void @llvm.lifetime.end.p0(i64 24, ptr nonnull %2) #16
  br label %43

43:                                               ; preds = %11, %32, %42, %21, %31, %15
  %.0 = phi i32 [ -1, %11 ], [ %.1, %31 ], [ 0, %21 ], [ %.2, %42 ], [ 0, %32 ], [ 0, %15 ]
  ret i32 %.0
}